; Function Attrs: mustprogress uwtable
define internal fastcc noundef range(i32 0, 3) i32 @_ZN10open_spiel9coin_game12_GLOBAL__N_113GetSymbolTypeEc(i8 noundef signext %0) unnamed_addr #3 personality ptr @__gxx_personality_v0 {
  %2 = alloca %"class.std::__cxx11::basic_string", align 8
  %3 = alloca %"class.absl::debian2::AlphaNum", align 8
  %4 = alloca %"class.absl::debian2::AlphaNum", align 8
  %5 = alloca %"class.std::__cxx11::basic_string", align 8
  %6 = alloca %"class.std::allocator", align 1
  %7 = icmp eq i8 %0, 32
  br i1 %7, label %24, label %8

8:                                                ; preds = %1
  %9 = add i8 %0, -97
  %or.cond = icmp ult i8 %9, 26
  br i1 %or.cond, label %24, label %10

10:                                               ; preds = %8
  %11 = add i8 %0, -48
  %or.cond5 = icmp ult i8 %11, 10
  br i1 %or.cond5, label %24, label %_ZN4absl7debian28AlphaNumC2EPKc.exit

_ZN4absl7debian28AlphaNumC2EPKc.exit:             ; preds = %10
  store ptr @.str.59, ptr %3, align 8
  %12 = getelementptr inbounds nuw i8, ptr %3, i64 8
  store i64 19, ptr %12, align 8
  call void @_ZNSaIcEC1Ev(ptr noundef nonnull align 1 dereferenceable(1) %6) #26
  invoke void @_ZNSt7__cxx1112basic_stringIcSt11char_traitsIcESaIcEEC2IS3_EEmcRKS3_(ptr noundef nonnull align 8 dereferenceable(32) %5, i64 noundef 1, i8 noundef signext %0, ptr noundef nonnull align 1 dereferenceable(1) %6)
          to label %13 unwind label %16

13:                                               ; preds = %_ZN4absl7debian28AlphaNumC2EPKc.exit
  call void @_ZN4absl7debian28AlphaNumC2ISaIcEEERKNSt7__cxx1112basic_stringIcSt11char_traitsIcET_EE(ptr noundef nonnull align 8 dereferenceable(48) %4, ptr noundef nonnull align 8 dereferenceable(32) %5)
  invoke void @_ZN4absl7debian26StrCatB5cxx11ERKNS0_8AlphaNumES3_(ptr dead_on_unwind nonnull writable sret(%"class.std::__cxx11::basic_string") align 8 %2, ptr noundef nonnull align 8 dereferenceable(48) %3, ptr noundef nonnull align 8 dereferenceable(48) %4)
          to label %14 unwind label %18

14:                                               ; preds = %13
  invoke void @_ZN10open_spiel15SpielFatalErrorERKNSt7__cxx1112basic_stringIcSt11char_traitsIcESaIcEEE(ptr noundef nonnull align 8 dereferenceable(32) %2) #25
          to label %15 unwind label %20

15:                                               ; preds = %14
  unreachable

16:                                               ; preds = %_ZN4absl7debian28AlphaNumC2EPKc.exit
  %17 = landingpad { ptr, i32 }
          cleanup
  br label %23

18:                                               ; preds = %13
  %19 = landingpad { ptr, i32 }
          cleanup
  br label %22

20:                                               ; preds = %14
  %21 = landingpad { ptr, i32 }
          cleanup
  call void @_ZNSt7__cxx1112basic_stringIcSt11char_traitsIcESaIcEED1Ev(ptr noundef nonnull align 8 dereferenceable(32) %2) #26
  br label %22

22:                                               ; preds = %20, %18
  %.pn = phi { ptr, i32 } [ %21, %20 ], [ %19, %18 ]
  call void @_ZNSt7__cxx1112basic_stringIcSt11char_traitsIcESaIcEED1Ev(ptr noundef nonnull align 8 dereferenceable(32) %5) #26
  br label %23

23:                                               ; preds = %22, %16
  %.pn.pn = phi { ptr, i32 } [ %.pn, %22 ], [ %17, %16 ]
  call void @_ZNSaIcED1Ev(ptr noundef nonnull align 1 dereferenceable(1) %6) #26
  resume { ptr, i32 } %.pn.pn

24:                                               ; preds = %10, %8, %1
  %.015 = phi i32 [ 0, %1 ], [ 1, %8 ], [ 2, %10 ]
  ret i32 %.015
}